target datalayout = "e-m:e-p270:32:32-p271:32:32-p272:64:64-i64:64-i128:128-f80:128-n8:16:32:64-S128"
target triple = "x86_64-pc-linux-gnu"

%struct.CVodeMemRec = type { double, ptr, ptr, i32, i32, i32, double, double, ptr, i32, ptr, ptr, i32, ptr, i32, i32, double, double, ptr, i32, i32, i32, ptr, ptr, ptr, i32, i32, ptr, ptr, ptr, i32, double, i32, i32, double, ptr, ptr, i32, ptr, ptr, i32, i32, i32, double, ptr, ptr, [13 x ptr], ptr, ptr, ptr, ptr, ptr, [13 x ptr], ptr, ptr, ptr, ptr, [13 x ptr], ptr, ptr, ptr, ptr, ptr, i32, [13 x ptr], ptr, ptr, ptr, ptr, ptr, i32, double, i32, i32, i32, i32, i32, double, double, double, double, double, double, double, double, [14 x double], [6 x double], [13 x double], double, double, double, double, double, double, double, double, double, double, double, i32, ptr, i32, i64, i32, i32, i32, i32, i32, double, double, double, i64, i64, i64, i64, i64, i64, i64, i64, i64, ptr, i64, i64, ptr, i64, i64, i64, i64, i64, i64, i32, i64, i64, i64, i64, i64, i64, double, double, double, ptr, ptr, ptr, ptr, ptr, i32, i32, i64, double, double, double, i32, double, i32, i32, i32, i32, i32, i32, i32, i32, i32, i32, i32, i32, i32, i32, i32, i32, ptr, ptr, ptr, i32, [6 x [4 x double]], i32, i64, ptr, i32, ptr, ptr, double, double, double, ptr, ptr, ptr, double, double, i32, i32, i64, ptr, i32, i32, ptr, i32 }
%struct.CVadjMemRec = type { double, double, i32, i32, double, ptr, i32, ptr, i32, ptr, i32, ptr, i64, ptr, i64, i32, ptr, ptr, ptr, ptr, i32, i32, i32, i32, [13 x ptr], [13 x ptr], [13 x double], ptr, ptr, i64 }
%struct.CVodeBMemRec = type { i32, double, ptr, i32, i32, ptr, ptr, ptr, ptr, ptr, ptr, ptr, ptr, ptr, double, ptr, ptr }
%struct.CVSpilsMemRecB = type { ptr, ptr, ptr, ptr, ptr, ptr, ptr }

@.str = private unnamed_addr constant [10 x i8] c"CVSPTFQMR\00", align 1
@.str.2 = private unnamed_addr constant [27 x i8] c"Integrator memory is NULL.\00", align 1
@.str.4 = private unnamed_addr constant [25 x i8] c"A memory request failed.\00", align 1
@.str.6 = private unnamed_addr constant [11 x i8] c"CVSptfqmrB\00", align 1
@.str.7 = private unnamed_addr constant [55 x i8] c"Illegal attempt to call before calling CVodeAdjMalloc.\00", align 1
@.str.8 = private unnamed_addr constant [25 x i8] c"Illegal value for which.\00", align 1

; Function Attrs: nounwind uwtable
define i32 @CVSptfqmrB(ptr noundef %0, i32 noundef %1, i32 noundef %2, i32 noundef %3) #0 {
  %5 = alloca i32, align 4
  %6 = alloca ptr, align 8
  %7 = alloca i32, align 4
  %8 = alloca i32, align 4
  %9 = alloca i32, align 4
  %10 = alloca ptr, align 8
  %11 = alloca ptr, align 8
  %12 = alloca ptr, align 8
  %13 = alloca ptr, align 8
  %14 = alloca ptr, align 8
  %15 = alloca i32, align 4
  %16 = alloca i32, align 4
  store ptr %0, ptr %6, align 8, !tbaa !3
  store i32 %1, ptr %7, align 4, !tbaa !7
  store i32 %2, ptr %8, align 4, !tbaa !7
  store i32 %3, ptr %9, align 4, !tbaa !7
  call void @llvm.lifetime.start.p0(i64 8, ptr %10) #5
  call void @llvm.lifetime.start.p0(i64 8, ptr %11) #5
  call void @llvm.lifetime.start.p0(i64 8, ptr %12) #5
  call void @llvm.lifetime.start.p0(i64 8, ptr %13) #5
  call void @llvm.lifetime.start.p0(i64 8, ptr %14) #5
  call void @llvm.lifetime.start.p0(i64 4, ptr %15) #5
  %17 = load ptr, ptr %6, align 8, !tbaa !3
  %18 = icmp eq ptr %17, null
  br i1 %18, label %19, label %20

19:                                               ; preds = %4
  call void (ptr, i32, ptr, ptr, ptr, ...) @cvProcessError(ptr noundef null, i32 noundef -1, ptr noundef @.str, ptr noundef @.str.6, ptr noundef @.str.2)
  store i32 -1, ptr %5, align 4
  store i32 1, ptr %16, align 4
  br label %90

20:                                               ; preds = %4
  %21 = load ptr, ptr %6, align 8, !tbaa !3
  store ptr %21, ptr %10, align 8, !tbaa !9
  %22 = load ptr, ptr %10, align 8, !tbaa !9
  %23 = getelementptr inbounds nuw %struct.CVodeMemRec, ptr %22, i32 0, i32 195
  %24 = load i32, ptr %23, align 8, !tbaa !74
  %25 = icmp eq i32 %24, 0
  br i1 %25, label %26, label %28

26:                                               ; preds = %20
  %27 = load ptr, ptr %10, align 8, !tbaa !9
  call void (ptr, i32, ptr, ptr, ptr, ...) @cvProcessError(ptr noundef %27, i32 noundef -101, ptr noundef @.str, ptr noundef @.str.6, ptr noundef @.str.7)
  store i32 -101, ptr %5, align 4
  store i32 1, ptr %16, align 4
  br label %90

28:                                               ; preds = %20
  %29 = load ptr, ptr %10, align 8, !tbaa !9
  %30 = getelementptr inbounds nuw %struct.CVodeMemRec, ptr %29, i32 0, i32 194
  %31 = load ptr, ptr %30, align 8, !tbaa !75
  store ptr %31, ptr %11, align 8, !tbaa !76
  %32 = load i32, ptr %7, align 4, !tbaa !7
  %33 = load ptr, ptr %11, align 8, !tbaa !76
  %34 = getelementptr inbounds nuw %struct.CVadjMemRec, ptr %33, i32 0, i32 6
  %35 = load i32, ptr %34, align 8, !tbaa !77
  %36 = icmp sge i32 %32, %35
  br i1 %36, label %37, label %39

37:                                               ; preds = %28
  %38 = load ptr, ptr %10, align 8, !tbaa !9
  call void (ptr, i32, ptr, ptr, ptr, ...) @cvProcessError(ptr noundef %38, i32 noundef -3, ptr noundef @.str, ptr noundef @.str.6, ptr noundef @.str.8)
  store i32 -3, ptr %5, align 4
  store i32 1, ptr %16, align 4
  br label %90

39:                                               ; preds = %28
  %40 = load ptr, ptr %11, align 8, !tbaa !76
  %41 = getelementptr inbounds nuw %struct.CVadjMemRec, ptr %40, i32 0, i32 5
  %42 = load ptr, ptr %41, align 8, !tbaa !82
  store ptr %42, ptr %12, align 8, !tbaa !83
  br label %43

43:                                               ; preds = %53, %39
  %44 = load ptr, ptr %12, align 8, !tbaa !83
  %45 = icmp ne ptr %44, null
  br i1 %45, label %46, label %57

46:                                               ; preds = %43
  %47 = load i32, ptr %7, align 4, !tbaa !7
  %48 = load ptr, ptr %12, align 8, !tbaa !83
  %49 = getelementptr inbounds nuw %struct.CVodeBMemRec, ptr %48, i32 0, i32 0
  %50 = load i32, ptr %49, align 8, !tbaa !84
  %51 = icmp eq i32 %47, %50
  br i1 %51, label %52, label %53

52:                                               ; preds = %46
  br label %57

53:                                               ; preds = %46
  %54 = load ptr, ptr %12, align 8, !tbaa !83
  %55 = getelementptr inbounds nuw %struct.CVodeBMemRec, ptr %54, i32 0, i32 16
  %56 = load ptr, ptr %55, align 8, !tbaa !86
  store ptr %56, ptr %12, align 8, !tbaa !83
  br label %43, !llvm.loop !87

57:                                               ; preds = %52, %43
  %58 = load ptr, ptr %12, align 8, !tbaa !83
  %59 = getelementptr inbounds nuw %struct.CVodeBMemRec, ptr %58, i32 0, i32 2
  %60 = load ptr, ptr %59, align 8, !tbaa !89
  store ptr %60, ptr %13, align 8, !tbaa !3
  store ptr null, ptr %14, align 8, !tbaa !90
  %61 = call noalias ptr @malloc(i64 noundef 56) #6
  store ptr %61, ptr %14, align 8, !tbaa !90
  %62 = load ptr, ptr %14, align 8, !tbaa !90
  %63 = icmp eq ptr %62, null
  br i1 %63, label %64, label %66

64:                                               ; preds = %57
  %65 = load ptr, ptr %10, align 8, !tbaa !9
  call void (ptr, i32, ptr, ptr, ptr, ...) @cvProcessError(ptr noundef %65, i32 noundef -4, ptr noundef @.str, ptr noundef @.str.6, ptr noundef @.str.4)
  store i32 -4, ptr %5, align 4
  store i32 1, ptr %16, align 4
  br label %90

66:                                               ; preds = %57
  %67 = load ptr, ptr %14, align 8, !tbaa !90
  %68 = getelementptr inbounds nuw %struct.CVSpilsMemRecB, ptr %67, i32 0, i32 2
  store ptr null, ptr %68, align 8, !tbaa !92
  %69 = load ptr, ptr %14, align 8, !tbaa !90
  %70 = getelementptr inbounds nuw %struct.CVSpilsMemRecB, ptr %69, i32 0, i32 4
  store ptr null, ptr %70, align 8, !tbaa !94
  %71 = load ptr, ptr %14, align 8, !tbaa !90
  %72 = getelementptr inbounds nuw %struct.CVSpilsMemRecB, ptr %71, i32 0, i32 6
  store ptr null, ptr %72, align 8, !tbaa !95
  %73 = load ptr, ptr %14, align 8, !tbaa !90
  %74 = getelementptr inbounds nuw %struct.CVSpilsMemRecB, ptr %73, i32 0, i32 0
  store ptr null, ptr %74, align 8, !tbaa !96
  %75 = load ptr, ptr %14, align 8, !tbaa !90
  %76 = load ptr, ptr %12, align 8, !tbaa !83
  %77 = getelementptr inbounds nuw %struct.CVodeBMemRec, ptr %76, i32 0, i32 10
  store ptr %75, ptr %77, align 8, !tbaa !97
  %78 = load ptr, ptr %12, align 8, !tbaa !83
  %79 = getelementptr inbounds nuw %struct.CVodeBMemRec, ptr %78, i32 0, i32 11
  store ptr @CVSptfqmrFreeB, ptr %79, align 8, !tbaa !98
  %80 = load ptr, ptr %13, align 8, !tbaa !3
  %81 = load i32, ptr %8, align 4, !tbaa !7
  %82 = load i32, ptr %9, align 4, !tbaa !7
  %83 = call i32 @CVSptfqmr(ptr noundef %80, i32 noundef %81, i32 noundef %82)
  store i32 %83, ptr %15, align 4, !tbaa !7
  %84 = load i32, ptr %15, align 4, !tbaa !7
  %85 = icmp ne i32 %84, 0
  br i1 %85, label %86, label %88

86:                                               ; preds = %66
  %87 = load ptr, ptr %14, align 8, !tbaa !90
  call void @free(ptr noundef %87) #5
  store ptr null, ptr %14, align 8, !tbaa !90
  br label %88

88:                                               ; preds = %86, %66
  %89 = load i32, ptr %15, align 4, !tbaa !7
  store i32 %89, ptr %5, align 4
  store i32 1, ptr %16, align 4
  br label %90

90:                                               ; preds = %88, %64, %37, %26, %19
  call void @llvm.lifetime.end.p0(i64 4, ptr %15) #5
  call void @llvm.lifetime.end.p0(i64 8, ptr %14) #5
  call void @llvm.lifetime.end.p0(i64 8, ptr %13) #5
  call void @llvm.lifetime.end.p0(i64 8, ptr %12) #5
  call void @llvm.lifetime.end.p0(i64 8, ptr %11) #5
  call void @llvm.lifetime.end.p0(i64 8, ptr %10) #5
  %91 = load i32, ptr %5, align 4
  ret i32 %91
}