; Function Attrs: nounwind uwtable
define range(i32 -101, 1) i32 @CVSptfqmrB(ptr noundef %0, i32 noundef %1, i32 noundef %2, i32 noundef %3) local_unnamed_addr #0 {
  %5 = icmp eq ptr %0, null
  br i1 %5, label %6, label %7

6:                                                ; preds = %4
  tail call void (ptr, i32, ptr, ptr, ptr, ...) @cvProcessError(ptr noundef null, i32 noundef -1, ptr noundef nonnull @.str, ptr noundef nonnull @.str.6, ptr noundef nonnull @.str.2) #7
  br label %36

7:                                                ; preds = %4
  %8 = getelementptr inbounds nuw i8, ptr %0, i64 2200
  %9 = load i32, ptr %8, align 8, !tbaa !65
  %10 = icmp eq i32 %9, 0
  br i1 %10, label %11, label %12

11:                                               ; preds = %7
  tail call void (ptr, i32, ptr, ptr, ptr, ...) @cvProcessError(ptr noundef nonnull %0, i32 noundef -101, ptr noundef nonnull @.str, ptr noundef nonnull @.str.6, ptr noundef nonnull @.str.7) #7
  br label %36

12:                                               ; preds = %7
  %13 = getelementptr inbounds nuw i8, ptr %0, i64 2192
  %14 = load ptr, ptr %13, align 8, !tbaa !66
  %15 = getelementptr inbounds nuw i8, ptr %14, i64 40
  %16 = load i32, ptr %15, align 8, !tbaa !67
  %.not = icmp slt i32 %1, %16
  br i1 %.not, label %18, label %17

17:                                               ; preds = %12
  tail call void (ptr, i32, ptr, ptr, ptr, ...) @cvProcessError(ptr noundef nonnull %0, i32 noundef -3, ptr noundef nonnull @.str, ptr noundef nonnull @.str.6, ptr noundef nonnull @.str.8) #7
  br label %36

18:                                               ; preds = %12
  %19 = getelementptr inbounds nuw i8, ptr %14, i64 32
  br label %.lr.ph

.lr.ph:                                           ; preds = %.lr.ph, %18
  %.029.sink.in = phi ptr [ %22, %.lr.ph ], [ %19, %18 ]
  %.029.sink = load ptr, ptr %.029.sink.in, align 8, !tbaa !72, !nonnull !73, !noundef !73
  %20 = load i32, ptr %.029.sink, align 8, !tbaa !74
  %21 = icmp eq i32 %1, %20
  %22 = getelementptr inbounds nuw i8, ptr %.029.sink, i64 120
  br i1 %21, label %._crit_edge, label %.lr.ph

._crit_edge:                                      ; preds = %.lr.ph
  %23 = getelementptr inbounds nuw i8, ptr %.029.sink, i64 16
  %24 = load ptr, ptr %23, align 8, !tbaa !77
  %25 = tail call noalias dereferenceable_or_null(56) ptr @malloc(i64 noundef 56) #8
  %26 = icmp eq ptr %25, null
  br i1 %26, label %27, label %28

27:                                               ; preds = %._crit_edge
  tail call void (ptr, i32, ptr, ptr, ptr, ...) @cvProcessError(ptr noundef nonnull %0, i32 noundef -4, ptr noundef nonnull @.str, ptr noundef nonnull @.str.6, ptr noundef nonnull @.str.4) #7
  br label %36

28:                                               ; preds = %._crit_edge
  %29 = getelementptr inbounds nuw i8, ptr %25, i64 16
  store ptr null, ptr %29, align 8, !tbaa !78
  %30 = getelementptr inbounds nuw i8, ptr %25, i64 32
  store ptr null, ptr %30, align 8, !tbaa !80
  %31 = getelementptr inbounds nuw i8, ptr %25, i64 48
  store ptr null, ptr %31, align 8, !tbaa !81
  store ptr null, ptr %25, align 8, !tbaa !82
  %32 = getelementptr inbounds nuw i8, ptr %.029.sink, i64 72
  store ptr %25, ptr %32, align 8, !tbaa !83
  %33 = getelementptr inbounds nuw i8, ptr %.029.sink, i64 80
  store ptr @CVSptfqmrFreeB, ptr %33, align 8, !tbaa !84
  %34 = tail call i32 @CVSptfqmr(ptr noundef %24, i32 noundef %2, i32 noundef %3)
  %.not34 = icmp eq i32 %34, 0
  br i1 %.not34, label %36, label %35

35:                                               ; preds = %28
  tail call void @free(ptr noundef nonnull %25) #7
  br label %36

36:                                               ; preds = %28, %35, %27, %17, %11, %6
  %.0 = phi i32 [ -1, %6 ], [ -101, %11 ], [ -3, %17 ], [ -4, %27 ], [ %34, %35 ], [ 0, %28 ]
  ret i32 %.0
}